; Function Attrs: mustprogress uwtable
define void @_ZN10MainWindow9updateLogEv(ptr noundef nonnull align 8 dereferenceable(1376) %0) local_unnamed_addr #9 align 2 {
  %2 = tail call noundef ptr @_ZNK7QObject6senderEv(ptr noundef nonnull align 8 dereferenceable(16) %0)
  %3 = tail call noundef ptr @_ZNK11QMetaObject4castEP7QObject(ptr noundef nonnull align 8 dereferenceable(48) @_ZN11GLLogStream16staticMetaObjectE, ptr noundef %2)
  %.not = icmp eq ptr %3, null
  br i1 %.not, label %8, label %4

4:                                                ; preds = %1
  %5 = getelementptr inbounds i8, ptr %0, i64 160
  %6 = load ptr, ptr %5, align 8
  %.not4 = icmp eq ptr %6, null
  br i1 %.not4, label %8, label %7

7:                                                ; preds = %4
  tail call void @_ZN11LayerDialog9updateLogER11GLLogStream(ptr noundef nonnull align 8 dereferenceable(256) %6, ptr noundef nonnull align 8 dereferenceable(40) %3)
  br label %8

8:                                                ; preds = %7, %4, %1
  ret void
}